target datalayout = "e-m:e-p270:32:32-p271:32:32-p272:64:64-i64:64-i128:128-f80:128-n8:16:32:64-S128"
target triple = "x86_64-pc-linux-gnu"

@ruby_hexdigits = external constant [0 x i8], align 1

; Function Attrs: nounwind sspstrong uwtable
define internal void @dump_append_ptr(ptr noundef %0, i64 noundef %1) #0 {
  %3 = alloca ptr, align 8
  %4 = alloca i64, align 8
  %5 = alloca [20 x i8], align 16
  %6 = alloca ptr, align 8
  %7 = alloca ptr, align 8
  store ptr %0, ptr %3, align 8, !tbaa !18
  store i64 %1, ptr %4, align 8, !tbaa !6
  call void @llvm.lifetime.start.p0(i64 20, ptr %5) #21
  call void @llvm.lifetime.start.p0(i64 8, ptr %6) #21
  call void @llvm.lifetime.start.p0(i64 8, ptr %7) #21
  %8 = getelementptr inbounds nuw [20 x i8], ptr %5, i64 0, i64 20
  store ptr %8, ptr %7, align 8, !tbaa !69
  store ptr %8, ptr %6, align 8, !tbaa !69
  %9 = load ptr, ptr %6, align 8, !tbaa !69
  %10 = getelementptr inbounds i8, ptr %9, i32 -1
  store ptr %10, ptr %6, align 8, !tbaa !69
  store i8 34, ptr %10, align 1, !tbaa !84
  br label %11

11:                                               ; preds = %14, %2
  %12 = load i64, ptr %4, align 8, !tbaa !6
  %13 = icmp ne i64 %12, 0
  br i1 %13, label %14, label %23

14:                                               ; preds = %11
  %15 = load i64, ptr %4, align 8, !tbaa !6
  %16 = and i64 %15, 15
  %17 = getelementptr inbounds nuw [0 x i8], ptr @ruby_hexdigits, i64 0, i64 %16
  %18 = load i8, ptr %17, align 1, !tbaa !84
  %19 = load ptr, ptr %6, align 8, !tbaa !69
  %20 = getelementptr inbounds i8, ptr %19, i32 -1
  store ptr %20, ptr %6, align 8, !tbaa !69
  store i8 %18, ptr %20, align 1, !tbaa !84
  %21 = load i64, ptr %4, align 8, !tbaa !6
  %22 = lshr i64 %21, 4
  store i64 %22, ptr %4, align 8, !tbaa !6
  br label %11, !llvm.loop !99

23:                                               ; preds = %11
  %24 = load ptr, ptr %6, align 8, !tbaa !69
  %25 = getelementptr inbounds i8, ptr %24, i32 -1
  store ptr %25, ptr %6, align 8, !tbaa !69
  store i8 120, ptr %25, align 1, !tbaa !84
  %26 = load ptr, ptr %6, align 8, !tbaa !69
  %27 = getelementptr inbounds i8, ptr %26, i32 -1
  store ptr %27, ptr %6, align 8, !tbaa !69
  store i8 48, ptr %27, align 1, !tbaa !84
  %28 = load ptr, ptr %6, align 8, !tbaa !69
  %29 = getelementptr inbounds i8, ptr %28, i32 -1
  store ptr %29, ptr %6, align 8, !tbaa !69
  store i8 34, ptr %29, align 1, !tbaa !84
  %30 = load ptr, ptr %3, align 8, !tbaa !18
  %31 = load ptr, ptr %6, align 8, !tbaa !69
  %32 = load ptr, ptr %7, align 8, !tbaa !69
  %33 = load ptr, ptr %6, align 8, !tbaa !69
  %34 = ptrtoint ptr %32 to i64
  %35 = ptrtoint ptr %33 to i64
  %36 = sub i64 %34, %35
  call void @buffer_append(ptr noundef %30, ptr noundef %31, i64 noundef %36)
  call void @llvm.lifetime.end.p0(i64 8, ptr %7) #21
  call void @llvm.lifetime.end.p0(i64 8, ptr %6) #21
  call void @llvm.lifetime.end.p0(i64 20, ptr %5) #21
  ret void
}

; Function Attrs: nounwind sspstrong uwtable
define internal void @dump_append_ref(ptr noundef %0, i64 noundef %1) #0 {
  %3 = alloca ptr, align 8
  %4 = alloca i64, align 8
  store ptr %0, ptr %3, align 8, !tbaa !18
  store i64 %1, ptr %4, align 8, !tbaa !6
  %5 = load ptr, ptr %3, align 8, !tbaa !18
  %6 = load i64, ptr %4, align 8, !tbaa !6
  call void @dump_append_ptr(ptr noundef %5, i64 noundef %6)
  ret void
}