; Function Attrs: nounwind sspstrong uwtable
define internal fastcc void @dump_append_ref(ptr noundef %0, i64 noundef %1) unnamed_addr #0 {
  %3 = alloca [20 x i8], align 16
  call void @llvm.lifetime.start.p0(i64 20, ptr nonnull %3) #12
  %4 = getelementptr inbounds nuw i8, ptr %3, i64 19
  store i8 34, ptr %4, align 1, !tbaa !34
  %.not12.i = icmp eq i64 %1, 0
  br i1 %.not12.i, label %dump_append_ptr.exit, label %.lr.ph.i

.lr.ph.i:                                         ; preds = %2, %.lr.ph.i
  %.014.i = phi i64 [ %9, %.lr.ph.i ], [ %1, %2 ]
  %.01113.i = phi ptr [ %8, %.lr.ph.i ], [ %4, %2 ]
  %5 = and i64 %.014.i, 15
  %6 = getelementptr inbounds nuw [0 x i8], ptr @ruby_hexdigits, i64 0, i64 %5
  %7 = load i8, ptr %6, align 1, !tbaa !34
  %8 = getelementptr inbounds i8, ptr %.01113.i, i64 -1
  store i8 %7, ptr %8, align 1, !tbaa !34
  %9 = lshr i64 %.014.i, 4
  %.not.i = icmp ult i64 %.014.i, 16
  br i1 %.not.i, label %dump_append_ptr.exit, label %.lr.ph.i, !llvm.loop !35

dump_append_ptr.exit:                             ; preds = %.lr.ph.i, %2
  %.011.lcssa.i = phi ptr [ %4, %2 ], [ %8, %.lr.ph.i ]
  %10 = getelementptr inbounds nuw i8, ptr %3, i64 20
  %11 = getelementptr inbounds i8, ptr %.011.lcssa.i, i64 -1
  store i8 120, ptr %11, align 1, !tbaa !34
  %12 = getelementptr inbounds i8, ptr %.011.lcssa.i, i64 -2
  store i8 48, ptr %12, align 1, !tbaa !34
  %13 = getelementptr inbounds i8, ptr %.011.lcssa.i, i64 -3
  store i8 34, ptr %13, align 1, !tbaa !34
  %14 = ptrtoint ptr %10 to i64
  %15 = ptrtoint ptr %13 to i64
  %16 = sub i64 %14, %15
  call fastcc void @buffer_append(ptr noundef %0, ptr noundef nonnull %13, i64 noundef %16)
  call void @llvm.lifetime.end.p0(i64 20, ptr nonnull %3) #12
  ret void
}